; Function Attrs: nounwind sspstrong uwtable
define hidden i64 @rb_yjit_str_simple_append(i64 noundef %0, i64 noundef %1) local_unnamed_addr #0 {
  %3 = inttoptr i64 %1 to ptr
  %4 = load i64, ptr %3, align 8, !tbaa !11, !noalias !146
  %5 = and i64 %4, 8192
  %.not.i.i = icmp eq i64 %5, 0
  %6 = getelementptr inbounds nuw i8, ptr %3, i64 24
  br i1 %.not.i.i, label %RSTRING_PTR.exit, label %7

7:                                                ; preds = %2
  %.sroa.2.0.copyload.i = load ptr, ptr %6, align 8
  br label %RSTRING_PTR.exit

RSTRING_PTR.exit:                                 ; preds = %2, %7
  %.sroa.2.0.i = phi ptr [ %.sroa.2.0.copyload.i, %7 ], [ %6, %2 ]
  %8 = getelementptr inbounds nuw i8, ptr %3, i64 16
  %9 = load i64, ptr %8, align 8, !tbaa !117
  %10 = tail call i64 @rb_str_cat(i64 noundef %0, ptr noundef %.sroa.2.0.i, i64 noundef %9) #5
  ret i64 %10
}